target datalayout = "e-m:e-p270:32:32-p271:32:32-p272:64:64-i64:64-i128:128-f80:128-n8:16:32:64-S128"
target triple = "x86_64-pc-linux-gnu"

%class.LogTagSet = type { ptr, i64, [5 x i32], [4 x i8], %class.LogOutputList, %class.LogDecorators, ptr }
%class.LogOutputList = type <{ [6 x ptr], i32, [4 x i8] }>
%class.LogDecorators = type { i32 }
%class.PSAdaptiveSizePolicy = type { %class.AdaptiveSizePolicy, ptr, ptr, ptr, ptr, ptr, double, i64, i64, i32, i32, i32, i32 }
%class.AdaptiveSizePolicy = type { ptr, double, i64, i64, i64, %class.GCOverheadChecker, ptr, ptr, ptr, ptr, ptr, ptr, ptr, ptr, ptr, ptr, ptr, ptr, ptr, ptr, double, double, double, i8, i32, i32, i32, i32, i8, i8, i8, i32, i32, i64, i64 }
%class.GCOverheadChecker = type { i8, i32 }
%class.AdaptivePaddedAverage = type { %class.AdaptiveWeightedAverage, float, float, i32 }
%class.AdaptiveWeightedAverage = type { float, i32, i32, i8, float }

@.str.17 = private unnamed_addr constant [143 x i8] c"PSAdaptiveSizePolicy::adjust_promo_for_pause_time adjusting gen sizes for major pause (avg %f goal %f). desired_promo_size %lu promo delta %lu\00", align 1
@_ZN16LogTagSetMappingILN6LogTag4typeE49ELS1_40ELS1_0ELS1_0ELS1_0ELS1_0EE7_tagsetE = linkonce_odr hidden global %class.LogTagSet zeroinitializer, comdat, align 8

; Function Attrs: mustprogress nounwind uwtable
define linkonce_odr hidden noundef zeroext i1 @_ZNK13LogOutputList8is_levelEN8LogLevel4typeE(ptr noundef nonnull align 8 dereferenceable(52) %0, i32 noundef %1) #1 comdat align 2 {
  %3 = alloca ptr, align 8
  %4 = alloca i32, align 4
  store ptr %0, ptr %3, align 8
  store i32 %1, ptr %4, align 4
  %5 = load ptr, ptr %3, align 8
  %6 = getelementptr inbounds %class.LogOutputList, ptr %5, i32 0, i32 0
  %7 = load i32, ptr %4, align 4
  %8 = zext i32 %7 to i64
  %9 = getelementptr inbounds [6 x ptr], ptr %6, i64 0, i64 %8
  %10 = load volatile ptr, ptr %9, align 8
  %11 = icmp ne ptr %10, null
  ret i1 %11
}

; Function Attrs: mustprogress nounwind uwtable
define internal noundef i64 @_ZL14alignment_maskImTnNSt9enable_ifIXcvbsr3std11is_integralIT_EE5valueEiE4typeELi0EES1_S1_(i64 noundef %0) #1 {
  %2 = alloca i64, align 8
  store i64 %0, ptr %2, align 8
  %3 = load i64, ptr %2, align 8
  %4 = sub i64 %3, 1
  ret i64 %4
}

; Function Attrs: mustprogress nounwind uwtable
define linkonce_odr hidden noundef zeroext i1 @_ZNK9LogTagSet8is_levelEN8LogLevel4typeE(ptr noundef nonnull align 8 dereferenceable(112) %0, i32 noundef %1) #1 comdat align 2 {
  %3 = alloca ptr, align 8
  %4 = alloca i32, align 4
  store ptr %0, ptr %3, align 8
  store i32 %1, ptr %4, align 4
  %5 = load ptr, ptr %3, align 8
  %6 = getelementptr inbounds %class.LogTagSet, ptr %5, i32 0, i32 4
  %7 = load i32, ptr %4, align 4
  %8 = call noundef zeroext i1 @_ZNK13LogOutputList8is_levelEN8LogLevel4typeE(ptr noundef nonnull align 8 dereferenceable(52) %6, i32 noundef %7)
  ret i1 %8
}

; Function Attrs: mustprogress nounwind uwtable
define linkonce_odr hidden noundef nonnull align 8 dereferenceable(112) ptr @_ZN16LogTagSetMappingILN6LogTag4typeE49ELS1_40ELS1_0ELS1_0ELS1_0ELS1_0EE6tagsetEv() #1 comdat align 2 {
  ret ptr @_ZN16LogTagSetMappingILN6LogTag4typeE49ELS1_40ELS1_0ELS1_0ELS1_0ELS1_0EE7_tagsetE
}

; Function Attrs: mustprogress nounwind uwtable
define linkonce_odr hidden noundef i64 @_Z10align_downImmTnNSt9enable_ifIXcvbsr3std11is_integralIT_EE5valueEiE4typeELi0EES1_S1_T0_(i64 noundef %0, i64 noundef %1) #1 comdat {
  %3 = alloca i64, align 8
  %4 = alloca i64, align 8
  %5 = alloca i64, align 8
  store i64 %0, ptr %3, align 8
  store i64 %1, ptr %4, align 8
  %6 = load i64, ptr %3, align 8
  %7 = load i64, ptr %4, align 8
  %8 = call noundef i64 @_ZL14alignment_maskImTnNSt9enable_ifIXcvbsr3std11is_integralIT_EE5valueEiE4typeELi0EES1_S1_(i64 noundef %7)
  %9 = xor i64 %8, -1
  %10 = and i64 %6, %9
  store i64 %10, ptr %5, align 8
  %11 = load i64, ptr %5, align 8
  ret i64 %11
}

; Function Attrs: mustprogress nounwind uwtable
define linkonce_odr hidden noundef double @_ZNK18AdaptiveSizePolicy17gc_pause_goal_secEv(ptr noundef nonnull align 8 dereferenceable(232) %0) #1 comdat align 2 {
  %2 = alloca ptr, align 8
  store ptr %0, ptr %2, align 8
  %3 = load ptr, ptr %2, align 8
  %4 = getelementptr inbounds %class.AdaptiveSizePolicy, ptr %3, i32 0, i32 22
  %5 = load double, ptr %4, align 8
  ret double %5
}

; Function Attrs: mustprogress nounwind uwtable
define linkonce_odr hidden noundef float @_ZNK23AdaptiveWeightedAverage7averageEv(ptr noundef nonnull align 4 dereferenceable(20) %0) #1 comdat align 2 {
  %2 = alloca ptr, align 8
  store ptr %0, ptr %2, align 8
  %3 = load ptr, ptr %2, align 8
  %4 = getelementptr inbounds %class.AdaptiveWeightedAverage, ptr %3, i32 0, i32 0
  %5 = load float, ptr %4, align 4
  ret float %5
}

; Function Attrs: mustprogress nounwind uwtable
define linkonce_odr hidden noundef zeroext i1 @_ZN7LogImplILN6LogTag4typeE49ELS1_40ELS1_0ELS1_0ELS1_0ELS1_0EE8is_levelEN8LogLevel4typeE(i32 noundef %0) #1 comdat align 2 {
  %2 = alloca i32, align 4
  store i32 %0, ptr %2, align 4
  %3 = call noundef nonnull align 8 dereferenceable(112) ptr @_ZN16LogTagSetMappingILN6LogTag4typeE49ELS1_40ELS1_0ELS1_0ELS1_0ELS1_0EE6tagsetEv()
  %4 = load i32, ptr %2, align 4
  %5 = call noundef zeroext i1 @_ZNK9LogTagSet8is_levelEN8LogLevel4typeE(ptr noundef nonnull align 8 dereferenceable(112) %3, i32 noundef %4)
  ret i1 %5
}

; Function Attrs: mustprogress nounwind uwtable
define hidden noundef i64 @_ZN20PSAdaptiveSizePolicy28promo_decrement_aligned_downEm(ptr noundef nonnull align 8 dereferenceable(312) %0, i64 noundef %1) #1 align 2 {
  %3 = alloca ptr, align 8
  %4 = alloca i64, align 8
  %5 = alloca i64, align 8
  store ptr %0, ptr %3, align 8
  store i64 %1, ptr %4, align 8
  %6 = load ptr, ptr %3, align 8
  %7 = load i64, ptr %4, align 8
  %8 = call noundef i64 @_ZN18AdaptiveSizePolicy15promo_decrementEm(ptr noundef nonnull align 8 dereferenceable(232) %6, i64 noundef %7)
  store i64 %8, ptr %5, align 8
  %9 = load i64, ptr %5, align 8
  %10 = getelementptr inbounds %class.PSAdaptiveSizePolicy, ptr %6, i32 0, i32 7
  %11 = load i64, ptr %10, align 8
  %12 = call noundef i64 @_Z10align_downImmTnNSt9enable_ifIXcvbsr3std11is_integralIT_EE5valueEiE4typeELi0EES1_S1_T0_(i64 noundef %9, i64 noundef %11)
  ret i64 %12
}

; Function Attrs: mustprogress nounwind uwtable
define linkonce_odr hidden void @_ZN18AdaptiveSizePolicy33set_change_old_gen_for_maj_pausesEi(ptr noundef nonnull align 8 dereferenceable(232) %0, i32 noundef %1) #1 comdat align 2 {
  %3 = alloca ptr, align 8
  %4 = alloca i32, align 4
  store ptr %0, ptr %3, align 8
  store i32 %1, ptr %4, align 4
  %5 = load ptr, ptr %3, align 8
  %6 = load i32, ptr %4, align 4
  %7 = getelementptr inbounds %class.AdaptiveSizePolicy, ptr %5, i32 0, i32 25
  store i32 %6, ptr %7, align 8
  ret void
}

; Function Attrs: mustprogress nounwind uwtable
define linkonce_odr hidden noundef ptr @_ZN20PSAdaptiveSizePolicy25major_pause_old_estimatorEv(ptr noundef nonnull align 8 dereferenceable(312) %0) #1 comdat align 2 {
  %2 = alloca ptr, align 8
  store ptr %0, ptr %2, align 8
  %3 = load ptr, ptr %2, align 8
  %4 = getelementptr inbounds %class.PSAdaptiveSizePolicy, ptr %3, i32 0, i32 4
  %5 = load ptr, ptr %4, align 8
  ret ptr %5
}

; Function Attrs: mustprogress nounwind uwtable
define linkonce_odr hidden noundef float @_ZNK21AdaptivePaddedAverage14padded_averageEv(ptr noundef nonnull align 4 dereferenceable(32) %0) #1 comdat align 2 {
  %2 = alloca ptr, align 8
  store ptr %0, ptr %2, align 8
  %3 = load ptr, ptr %2, align 8
  %4 = getelementptr inbounds %class.AdaptivePaddedAverage, ptr %3, i32 0, i32 1
  %5 = load float, ptr %4, align 4
  ret float %5
}

; Function Attrs: mustprogress nounwind uwtable
define hidden void @_ZN20PSAdaptiveSizePolicy27adjust_promo_for_pause_timeEPm(ptr noundef nonnull align 8 dereferenceable(312) %0, ptr noundef %1) #1 align 2 {
  %3 = alloca ptr, align 8
  %4 = alloca ptr, align 8
  %5 = alloca i64, align 8
  store ptr %0, ptr %3, align 8
  store ptr %1, ptr %4, align 8
  %6 = load ptr, ptr %3, align 8
  store i64 0, ptr %5, align 8
  %7 = getelementptr inbounds %class.AdaptiveSizePolicy, ptr %6, i32 0, i32 6
  %8 = load ptr, ptr %7, align 8
  %9 = call noundef float @_ZNK21AdaptivePaddedAverage14padded_averageEv(ptr noundef nonnull align 4 dereferenceable(32) %8)
  %10 = getelementptr inbounds %class.PSAdaptiveSizePolicy, ptr %6, i32 0, i32 1
  %11 = load ptr, ptr %10, align 8
  %12 = call noundef float @_ZNK21AdaptivePaddedAverage14padded_averageEv(ptr noundef nonnull align 4 dereferenceable(32) %11)
  %13 = fcmp ole float %9, %12
  br i1 %13, label %14, label %27

14:                                               ; preds = %2
  %15 = call noundef ptr @_ZN20PSAdaptiveSizePolicy25major_pause_old_estimatorEv(ptr noundef nonnull align 8 dereferenceable(312) %6)
  %16 = call noundef zeroext i1 @_ZN20LinearLeastSquareFit23decrement_will_decreaseEv(ptr noundef nonnull align 8 dereferenceable(88) %15)
  br i1 %16, label %17, label %26

17:                                               ; preds = %14
  call void @_ZN18AdaptiveSizePolicy33set_change_old_gen_for_maj_pausesEi(ptr noundef nonnull align 8 dereferenceable(232) %6, i32 noundef 2)
  %18 = load ptr, ptr %4, align 8
  %19 = load i64, ptr %18, align 8
  %20 = call noundef i64 @_ZN20PSAdaptiveSizePolicy28promo_decrement_aligned_downEm(ptr noundef nonnull align 8 dereferenceable(312) %6, i64 noundef %19)
  store i64 %20, ptr %5, align 8
  %21 = getelementptr inbounds %class.AdaptiveSizePolicy, ptr %6, i32 0, i32 3
  %22 = load i64, ptr %21, align 8
  %23 = load i64, ptr %5, align 8
  %24 = sub i64 %22, %23
  %25 = load ptr, ptr %4, align 8
  store i64 %24, ptr %25, align 8
  br label %26

26:                                               ; preds = %17, %14
  br label %27

27:                                               ; preds = %26, %2
  %28 = call noundef zeroext i1 @_ZN7LogImplILN6LogTag4typeE49ELS1_40ELS1_0ELS1_0ELS1_0ELS1_0EE8is_levelEN8LogLevel4typeE(i32 noundef 1)
  br i1 %28, label %30, label %29

29:                                               ; preds = %27
  br label %39

30:                                               ; preds = %27
  %31 = getelementptr inbounds %class.PSAdaptiveSizePolicy, ptr %6, i32 0, i32 1
  %32 = load ptr, ptr %31, align 8
  %33 = call noundef float @_ZNK23AdaptiveWeightedAverage7averageEv(ptr noundef nonnull align 4 dereferenceable(20) %32)
  %34 = fpext float %33 to double
  %35 = call noundef double @_ZNK18AdaptiveSizePolicy17gc_pause_goal_secEv(ptr noundef nonnull align 8 dereferenceable(232) %6)
  %36 = load ptr, ptr %4, align 8
  %37 = load i64, ptr %36, align 8
  %38 = load i64, ptr %5, align 8
  call void (ptr, ...) @_ZN7LogImplILN6LogTag4typeE49ELS1_40ELS1_0ELS1_0ELS1_0ELS1_0EE5writeILN8LogLevel4typeE1EEEvPKcz(ptr noundef @.str.17, double noundef %34, double noundef %35, i64 noundef %37, i64 noundef %38)
  br label %39

39:                                               ; preds = %30, %29
  ret void
}