; Function Attrs: mustprogress nounwind uwtable
define hidden void @_ZN20PSAdaptiveSizePolicy27adjust_promo_for_pause_timeEPm(ptr noundef nonnull align 8 dereferenceable(312) %0, ptr nocapture noundef %1) local_unnamed_addr #0 align 2 {
  %3 = getelementptr inbounds i8, ptr %0, i64 48
  %4 = load ptr, ptr %3, align 8
  %5 = getelementptr inbounds i8, ptr %4, i64 20
  %6 = load float, ptr %5, align 4
  %7 = getelementptr inbounds i8, ptr %0, i64 232
  %8 = load ptr, ptr %7, align 8
  %9 = getelementptr inbounds i8, ptr %8, i64 20
  %10 = load float, ptr %9, align 4
  %11 = fcmp ugt float %6, %10
  br i1 %11, label %27, label %12

12:                                               ; preds = %2
  %13 = getelementptr inbounds i8, ptr %0, i64 256
  %14 = load ptr, ptr %13, align 8
  %15 = tail call noundef zeroext i1 @_ZN20LinearLeastSquareFit23decrement_will_decreaseEv(ptr noundef nonnull align 8 dereferenceable(88) %14) #7
  br i1 %15, label %16, label %27

16:                                               ; preds = %12
  %17 = getelementptr inbounds i8, ptr %0, i64 192
  store i32 2, ptr %17, align 8
  %18 = load i64, ptr %1, align 8
  %19 = tail call noundef i64 @_ZN18AdaptiveSizePolicy15promo_decrementEm(ptr noundef nonnull align 8 dereferenceable(232) %0, i64 noundef %18) #7
  %20 = getelementptr inbounds i8, ptr %0, i64 280
  %21 = load i64, ptr %20, align 8
  %22 = sub i64 0, %21
  %23 = and i64 %19, %22
  %24 = getelementptr inbounds i8, ptr %0, i64 24
  %25 = load i64, ptr %24, align 8
  %26 = sub i64 %25, %23
  store i64 %26, ptr %1, align 8
  br label %27

27:                                               ; preds = %12, %16, %2
  %.0 = phi i64 [ %23, %16 ], [ 0, %12 ], [ 0, %2 ]
  %28 = load volatile ptr, ptr getelementptr inbounds (i8, ptr @_ZN16LogTagSetMappingILN6LogTag4typeE49ELS1_40ELS1_0ELS1_0ELS1_0ELS1_0EE7_tagsetE, i64 48), align 8
  %.not = icmp eq ptr %28, null
  br i1 %.not, label %36, label %29

29:                                               ; preds = %27
  %30 = load ptr, ptr %7, align 8
  %31 = load float, ptr %30, align 4
  %32 = fpext float %31 to double
  %33 = getelementptr inbounds i8, ptr %0, i64 176
  %34 = load double, ptr %33, align 8
  %35 = load i64, ptr %1, align 8
  tail call void (ptr, ...) @_ZN7LogImplILN6LogTag4typeE49ELS1_40ELS1_0ELS1_0ELS1_0ELS1_0EE5writeILN8LogLevel4typeE1EEEvPKcz(ptr noundef nonnull @.str.17, double noundef %32, double noundef %34, i64 noundef %35, i64 noundef %.0)
  br label %36

36:                                               ; preds = %27, %29
  ret void
}